target datalayout = "e-m:e-p270:32:32-p271:32:32-p272:64:64-i64:64-i128:128-f80:128-n8:16:32:64-S128"
target triple = "x86_64-pc-linux-gnu"

%struct.Int128_ = type { i64, i64 }

; Function Attrs: nounwind uwtable
define dso_local { i64, i64 } @i128_lshr64(i64 %0, i64 %1, i64 noundef %2) #0 {
  %4 = alloca %struct.Int128_, align 8
  %5 = alloca %struct.Int128_, align 8
  %6 = alloca i64, align 8
  %7 = getelementptr inbounds { i64, i64 }, ptr %5, i32 0, i32 0
  store i64 %0, ptr %7, align 8
  %8 = getelementptr inbounds { i64, i64 }, ptr %5, i32 0, i32 1
  store i64 %1, ptr %8, align 8
  store i64 %2, ptr %6, align 8
  %9 = load i64, ptr %6, align 8
  %10 = icmp eq i64 %9, 0
  br i1 %10, label %11, label %12

11:                                               ; preds = %3
  call void @llvm.memcpy.p0.p0.i64(ptr align 8 %4, ptr align 8 %5, i64 16, i1 false)
  br label %54

12:                                               ; preds = %3
  %13 = load i64, ptr %6, align 8
  %14 = icmp ugt i64 %13, 127
  br i1 %14, label %15, label %18

15:                                               ; preds = %12
  %16 = getelementptr inbounds %struct.Int128_, ptr %4, i32 0, i32 0
  store i64 0, ptr %16, align 8
  %17 = getelementptr inbounds %struct.Int128_, ptr %4, i32 0, i32 1
  store i64 0, ptr %17, align 8
  br label %54

18:                                               ; preds = %12
  %19 = load i64, ptr %6, align 8
  %20 = icmp eq i64 %19, 64
  br i1 %20, label %21, label %26

21:                                               ; preds = %18
  %22 = getelementptr inbounds %struct.Int128_, ptr %4, i32 0, i32 0
  store i64 0, ptr %22, align 8
  %23 = getelementptr inbounds %struct.Int128_, ptr %4, i32 0, i32 1
  %24 = getelementptr inbounds %struct.Int128_, ptr %5, i32 0, i32 0
  %25 = load i64, ptr %24, align 8
  store i64 %25, ptr %23, align 8
  br label %54

26:                                               ; preds = %18
  %27 = load i64, ptr %6, align 8
  %28 = icmp ugt i64 %27, 64
  br i1 %28, label %29, label %37

29:                                               ; preds = %26
  %30 = getelementptr inbounds %struct.Int128_, ptr %4, i32 0, i32 0
  store i64 0, ptr %30, align 8
  %31 = getelementptr inbounds %struct.Int128_, ptr %4, i32 0, i32 1
  %32 = getelementptr inbounds %struct.Int128_, ptr %5, i32 0, i32 0
  %33 = load i64, ptr %32, align 8
  %34 = load i64, ptr %6, align 8
  %35 = sub i64 %34, 64
  %36 = lshr i64 %33, %35
  store i64 %36, ptr %31, align 8
  br label %54

37:                                               ; preds = %26
  %38 = load i64, ptr %6, align 8
  %39 = getelementptr inbounds %struct.Int128_, ptr %5, i32 0, i32 1
  %40 = load i64, ptr %39, align 8
  %41 = lshr i64 %40, %38
  store i64 %41, ptr %39, align 8
  %42 = getelementptr inbounds %struct.Int128_, ptr %5, i32 0, i32 0
  %43 = load i64, ptr %42, align 8
  %44 = load i64, ptr %6, align 8
  %45 = sub i64 64, %44
  %46 = shl i64 %43, %45
  %47 = getelementptr inbounds %struct.Int128_, ptr %5, i32 0, i32 1
  %48 = load i64, ptr %47, align 8
  %49 = or i64 %48, %46
  store i64 %49, ptr %47, align 8
  %50 = load i64, ptr %6, align 8
  %51 = getelementptr inbounds %struct.Int128_, ptr %5, i32 0, i32 0
  %52 = load i64, ptr %51, align 8
  %53 = lshr i64 %52, %50
  store i64 %53, ptr %51, align 8
  call void @llvm.memcpy.p0.p0.i64(ptr align 8 %4, ptr align 8 %5, i64 16, i1 false)
  br label %54

54:                                               ; preds = %37, %29, %21, %15, %11
  %55 = load { i64, i64 }, ptr %4, align 8
  ret { i64, i64 } %55
}

; Function Attrs: nounwind uwtable
define dso_local { i64, i64 } @i128_sub(i64 %0, i64 %1, i64 %2, i64 %3) #0 {
  %5 = alloca %struct.Int128_, align 8
  %6 = alloca %struct.Int128_, align 8
  %7 = alloca %struct.Int128_, align 8
  %8 = alloca i64, align 8
  %9 = alloca i64, align 8
  %10 = getelementptr inbounds { i64, i64 }, ptr %6, i32 0, i32 0
  store i64 %0, ptr %10, align 8
  %11 = getelementptr inbounds { i64, i64 }, ptr %6, i32 0, i32 1
  store i64 %1, ptr %11, align 8
  %12 = getelementptr inbounds { i64, i64 }, ptr %7, i32 0, i32 0
  store i64 %2, ptr %12, align 8
  %13 = getelementptr inbounds { i64, i64 }, ptr %7, i32 0, i32 1
  store i64 %3, ptr %13, align 8
  %14 = getelementptr inbounds %struct.Int128_, ptr %6, i32 0, i32 1
  %15 = load i64, ptr %14, align 8
  %16 = getelementptr inbounds %struct.Int128_, ptr %7, i32 0, i32 1
  %17 = load i64, ptr %16, align 8
  %18 = sub i64 %15, %17
  store i64 %18, ptr %8, align 8
  %19 = getelementptr inbounds %struct.Int128_, ptr %6, i32 0, i32 0
  %20 = load i64, ptr %19, align 8
  %21 = getelementptr inbounds %struct.Int128_, ptr %7, i32 0, i32 0
  %22 = load i64, ptr %21, align 8
  %23 = sub i64 %20, %22
  store i64 %23, ptr %9, align 8
  %24 = load i64, ptr %8, align 8
  %25 = getelementptr inbounds %struct.Int128_, ptr %6, i32 0, i32 1
  %26 = load i64, ptr %25, align 8
  %27 = icmp ugt i64 %24, %26
  br i1 %27, label %28, label %31

28:                                               ; preds = %4
  %29 = load i64, ptr %9, align 8
  %30 = add i64 %29, -1
  store i64 %30, ptr %9, align 8
  br label %31

31:                                               ; preds = %28, %4
  %32 = getelementptr inbounds %struct.Int128_, ptr %5, i32 0, i32 0
  %33 = load i64, ptr %9, align 8
  store i64 %33, ptr %32, align 8
  %34 = getelementptr inbounds %struct.Int128_, ptr %5, i32 0, i32 1
  %35 = load i64, ptr %8, align 8
  store i64 %35, ptr %34, align 8
  %36 = load { i64, i64 }, ptr %5, align 8
  ret { i64, i64 } %36
}

; Function Attrs: nounwind uwtable
define dso_local i32 @i128_ucomp(i64 %0, i64 %1, i64 %2, i64 %3) #0 {
  %5 = alloca i32, align 4
  %6 = alloca %struct.Int128_, align 8
  %7 = alloca %struct.Int128_, align 8
  %8 = getelementptr inbounds { i64, i64 }, ptr %6, i32 0, i32 0
  store i64 %0, ptr %8, align 8
  %9 = getelementptr inbounds { i64, i64 }, ptr %6, i32 0, i32 1
  store i64 %1, ptr %9, align 8
  %10 = getelementptr inbounds { i64, i64 }, ptr %7, i32 0, i32 0
  store i64 %2, ptr %10, align 8
  %11 = getelementptr inbounds { i64, i64 }, ptr %7, i32 0, i32 1
  store i64 %3, ptr %11, align 8
  %12 = getelementptr inbounds %struct.Int128_, ptr %6, i32 0, i32 0
  %13 = load i64, ptr %12, align 8
  %14 = getelementptr inbounds %struct.Int128_, ptr %7, i32 0, i32 0
  %15 = load i64, ptr %14, align 8
  %16 = icmp ugt i64 %13, %15
  br i1 %16, label %17, label %18

17:                                               ; preds = %4
  store i32 1, ptr %5, align 4
  br label %39

18:                                               ; preds = %4
  %19 = getelementptr inbounds %struct.Int128_, ptr %6, i32 0, i32 0
  %20 = load i64, ptr %19, align 8
  %21 = getelementptr inbounds %struct.Int128_, ptr %7, i32 0, i32 0
  %22 = load i64, ptr %21, align 8
  %23 = icmp ult i64 %20, %22
  br i1 %23, label %24, label %25

24:                                               ; preds = %18
  store i32 -1, ptr %5, align 4
  br label %39

25:                                               ; preds = %18
  %26 = getelementptr inbounds %struct.Int128_, ptr %6, i32 0, i32 1
  %27 = load i64, ptr %26, align 8
  %28 = getelementptr inbounds %struct.Int128_, ptr %7, i32 0, i32 1
  %29 = load i64, ptr %28, align 8
  %30 = icmp eq i64 %27, %29
  br i1 %30, label %31, label %32

31:                                               ; preds = %25
  store i32 0, ptr %5, align 4
  br label %39

32:                                               ; preds = %25
  %33 = getelementptr inbounds %struct.Int128_, ptr %6, i32 0, i32 1
  %34 = load i64, ptr %33, align 8
  %35 = getelementptr inbounds %struct.Int128_, ptr %7, i32 0, i32 1
  %36 = load i64, ptr %35, align 8
  %37 = icmp ugt i64 %34, %36
  %38 = select i1 %37, i32 1, i32 -1
  store i32 %38, ptr %5, align 4
  br label %39

39:                                               ; preds = %32, %31, %24, %17
  %40 = load i32, ptr %5, align 4
  ret i32 %40
}

; Function Attrs: nounwind uwtable
define dso_local { i64, i64 } @i128_shl64(i64 %0, i64 %1, i64 noundef %2) #0 {
  %4 = alloca %struct.Int128_, align 8
  %5 = alloca %struct.Int128_, align 8
  %6 = alloca i64, align 8
  %7 = getelementptr inbounds { i64, i64 }, ptr %5, i32 0, i32 0
  store i64 %0, ptr %7, align 8
  %8 = getelementptr inbounds { i64, i64 }, ptr %5, i32 0, i32 1
  store i64 %1, ptr %8, align 8
  store i64 %2, ptr %6, align 8
  %9 = load i64, ptr %6, align 8
  %10 = icmp eq i64 %9, 0
  br i1 %10, label %11, label %12

11:                                               ; preds = %3
  call void @llvm.memcpy.p0.p0.i64(ptr align 8 %4, ptr align 8 %5, i64 16, i1 false)
  br label %54

12:                                               ; preds = %3
  %13 = load i64, ptr %6, align 8
  %14 = icmp ugt i64 %13, 127
  br i1 %14, label %15, label %18

15:                                               ; preds = %12
  %16 = getelementptr inbounds %struct.Int128_, ptr %4, i32 0, i32 0
  store i64 0, ptr %16, align 8
  %17 = getelementptr inbounds %struct.Int128_, ptr %4, i32 0, i32 1
  store i64 0, ptr %17, align 8
  br label %54

18:                                               ; preds = %12
  %19 = load i64, ptr %6, align 8
  %20 = icmp eq i64 %19, 64
  br i1 %20, label %21, label %26

21:                                               ; preds = %18
  %22 = getelementptr inbounds %struct.Int128_, ptr %4, i32 0, i32 0
  %23 = getelementptr inbounds %struct.Int128_, ptr %5, i32 0, i32 1
  %24 = load i64, ptr %23, align 8
  store i64 %24, ptr %22, align 8
  %25 = getelementptr inbounds %struct.Int128_, ptr %4, i32 0, i32 1
  store i64 0, ptr %25, align 8
  br label %54

26:                                               ; preds = %18
  %27 = load i64, ptr %6, align 8
  %28 = icmp ugt i64 %27, 64
  br i1 %28, label %29, label %37

29:                                               ; preds = %26
  %30 = getelementptr inbounds %struct.Int128_, ptr %4, i32 0, i32 0
  %31 = getelementptr inbounds %struct.Int128_, ptr %5, i32 0, i32 1
  %32 = load i64, ptr %31, align 8
  %33 = load i64, ptr %6, align 8
  %34 = sub i64 %33, 64
  %35 = shl i64 %32, %34
  store i64 %35, ptr %30, align 8
  %36 = getelementptr inbounds %struct.Int128_, ptr %4, i32 0, i32 1
  store i64 0, ptr %36, align 8
  br label %54

37:                                               ; preds = %26
  %38 = getelementptr inbounds %struct.Int128_, ptr %4, i32 0, i32 0
  %39 = getelementptr inbounds %struct.Int128_, ptr %5, i32 0, i32 0
  %40 = load i64, ptr %39, align 8
  %41 = load i64, ptr %6, align 8
  %42 = shl i64 %40, %41
  %43 = getelementptr inbounds %struct.Int128_, ptr %5, i32 0, i32 1
  %44 = load i64, ptr %43, align 8
  %45 = load i64, ptr %6, align 8
  %46 = sub i64 64, %45
  %47 = lshr i64 %44, %46
  %48 = or i64 %42, %47
  store i64 %48, ptr %38, align 8
  %49 = getelementptr inbounds %struct.Int128_, ptr %4, i32 0, i32 1
  %50 = getelementptr inbounds %struct.Int128_, ptr %5, i32 0, i32 1
  %51 = load i64, ptr %50, align 8
  %52 = load i64, ptr %6, align 8
  %53 = shl i64 %51, %52
  store i64 %53, ptr %49, align 8
  br label %54

54:                                               ; preds = %37, %29, %21, %15, %11
  %55 = load { i64, i64 }, ptr %4, align 8
  ret { i64, i64 } %55
}

; Function Attrs: nounwind uwtable
define dso_local void @i128_udivrem(i64 %0, i64 %1, i64 %2, i64 %3, ptr noundef %4, ptr noundef %5) #0 {
  %7 = alloca %struct.Int128_, align 8
  %8 = alloca %struct.Int128_, align 8
  %9 = alloca ptr, align 8
  %10 = alloca ptr, align 8
  %11 = alloca %struct.Int128_, align 8
  %12 = alloca i32, align 4
  %13 = alloca %struct.Int128_, align 8
  %14 = alloca %struct.Int128_, align 8
  %15 = alloca %struct.Int128_, align 8
  %16 = alloca %struct.Int128_, align 8
  %17 = getelementptr inbounds { i64, i64 }, ptr %7, i32 0, i32 0
  store i64 %0, ptr %17, align 8
  %18 = getelementptr inbounds { i64, i64 }, ptr %7, i32 0, i32 1
  store i64 %1, ptr %18, align 8
  %19 = getelementptr inbounds { i64, i64 }, ptr %8, i32 0, i32 0
  store i64 %2, ptr %19, align 8
  %20 = getelementptr inbounds { i64, i64 }, ptr %8, i32 0, i32 1
  store i64 %3, ptr %20, align 8
  store ptr %4, ptr %9, align 8
  store ptr %5, ptr %10, align 8
  %21 = load ptr, ptr %9, align 8
  %22 = getelementptr inbounds %struct.Int128_, ptr %11, i32 0, i32 0
  store i64 0, ptr %22, align 8
  %23 = getelementptr inbounds %struct.Int128_, ptr %11, i32 0, i32 1
  store i64 0, ptr %23, align 8
  call void @llvm.memcpy.p0.p0.i64(ptr align 8 %21, ptr align 8 %11, i64 16, i1 false)
  %24 = call i32 @i128_clz(ptr noundef %8)
  %25 = call i32 @i128_clz(ptr noundef %7)
  %26 = sub i32 %24, %25
  store i32 %26, ptr %12, align 4
  %27 = load i32, ptr %12, align 4
  %28 = icmp slt i32 %27, 0
  br i1 %28, label %29, label %31

29:                                               ; preds = %6
  %30 = load ptr, ptr %10, align 8
  call void @llvm.memcpy.p0.p0.i64(ptr align 8 %30, ptr align 8 %7, i64 16, i1 false)
  br label %106

31:                                               ; preds = %6
  %32 = load i32, ptr %12, align 4
  %33 = sext i32 %32 to i64
  %34 = getelementptr inbounds { i64, i64 }, ptr %8, i32 0, i32 0
  %35 = load i64, ptr %34, align 8
  %36 = getelementptr inbounds { i64, i64 }, ptr %8, i32 0, i32 1
  %37 = load i64, ptr %36, align 8
  %38 = call { i64, i64 } @i128_shl64(i64 %35, i64 %37, i64 noundef %33)
  %39 = getelementptr inbounds { i64, i64 }, ptr %13, i32 0, i32 0
  %40 = extractvalue { i64, i64 } %38, 0
  store i64 %40, ptr %39, align 8
  %41 = getelementptr inbounds { i64, i64 }, ptr %13, i32 0, i32 1
  %42 = extractvalue { i64, i64 } %38, 1
  store i64 %42, ptr %41, align 8
  call void @llvm.memcpy.p0.p0.i64(ptr align 8 %8, ptr align 8 %13, i64 16, i1 false)
  br label %43

43:                                               ; preds = %93, %31
  %44 = load ptr, ptr %9, align 8
  %45 = load ptr, ptr %9, align 8
  %46 = getelementptr inbounds { i64, i64 }, ptr %45, i32 0, i32 0
  %47 = load i64, ptr %46, align 8
  %48 = getelementptr inbounds { i64, i64 }, ptr %45, i32 0, i32 1
  %49 = load i64, ptr %48, align 8
  %50 = call { i64, i64 } @i128_shl64(i64 %47, i64 %49, i64 noundef 1)
  %51 = getelementptr inbounds { i64, i64 }, ptr %14, i32 0, i32 0
  %52 = extractvalue { i64, i64 } %50, 0
  store i64 %52, ptr %51, align 8
  %53 = getelementptr inbounds { i64, i64 }, ptr %14, i32 0, i32 1
  %54 = extractvalue { i64, i64 } %50, 1
  store i64 %54, ptr %53, align 8
  call void @llvm.memcpy.p0.p0.i64(ptr align 8 %44, ptr align 8 %14, i64 16, i1 false)
  %55 = getelementptr inbounds { i64, i64 }, ptr %7, i32 0, i32 0
  %56 = load i64, ptr %55, align 8
  %57 = getelementptr inbounds { i64, i64 }, ptr %7, i32 0, i32 1
  %58 = load i64, ptr %57, align 8
  %59 = getelementptr inbounds { i64, i64 }, ptr %8, i32 0, i32 0
  %60 = load i64, ptr %59, align 8
  %61 = getelementptr inbounds { i64, i64 }, ptr %8, i32 0, i32 1
  %62 = load i64, ptr %61, align 8
  %63 = call i32 @i128_ucomp(i64 %56, i64 %58, i64 %60, i64 %62)
  %64 = icmp ne i32 %63, -1
  br i1 %64, label %65, label %83

65:                                               ; preds = %43
  %66 = getelementptr inbounds { i64, i64 }, ptr %7, i32 0, i32 0
  %67 = load i64, ptr %66, align 8
  %68 = getelementptr inbounds { i64, i64 }, ptr %7, i32 0, i32 1
  %69 = load i64, ptr %68, align 8
  %70 = getelementptr inbounds { i64, i64 }, ptr %8, i32 0, i32 0
  %71 = load i64, ptr %70, align 8
  %72 = getelementptr inbounds { i64, i64 }, ptr %8, i32 0, i32 1
  %73 = load i64, ptr %72, align 8
  %74 = call { i64, i64 } @i128_sub(i64 %67, i64 %69, i64 %71, i64 %73)
  %75 = getelementptr inbounds { i64, i64 }, ptr %15, i32 0, i32 0
  %76 = extractvalue { i64, i64 } %74, 0
  store i64 %76, ptr %75, align 8
  %77 = getelementptr inbounds { i64, i64 }, ptr %15, i32 0, i32 1
  %78 = extractvalue { i64, i64 } %74, 1
  store i64 %78, ptr %77, align 8
  call void @llvm.memcpy.p0.p0.i64(ptr align 8 %7, ptr align 8 %15, i64 16, i1 false)
  %79 = load ptr, ptr %9, align 8
  %80 = getelementptr inbounds %struct.Int128_, ptr %79, i32 0, i32 1
  %81 = load i64, ptr %80, align 8
  %82 = or i64 %81, 1
  store i64 %82, ptr %80, align 8
  br label %83

83:                                               ; preds = %65, %43
  %84 = getelementptr inbounds { i64, i64 }, ptr %8, i32 0, i32 0
  %85 = load i64, ptr %84, align 8
  %86 = getelementptr inbounds { i64, i64 }, ptr %8, i32 0, i32 1
  %87 = load i64, ptr %86, align 8
  %88 = call { i64, i64 } @i128_lshr64(i64 %85, i64 %87, i64 noundef 1)
  %89 = getelementptr inbounds { i64, i64 }, ptr %16, i32 0, i32 0
  %90 = extractvalue { i64, i64 } %88, 0
  store i64 %90, ptr %89, align 8
  %91 = getelementptr inbounds { i64, i64 }, ptr %16, i32 0, i32 1
  %92 = extractvalue { i64, i64 } %88, 1
  store i64 %92, ptr %91, align 8
  call void @llvm.memcpy.p0.p0.i64(ptr align 8 %8, ptr align 8 %16, i64 16, i1 false)
  br label %93

93:                                               ; preds = %83
  %94 = load i32, ptr %12, align 4
  %95 = add nsw i32 %94, -1
  store i32 %95, ptr %12, align 4
  %96 = icmp ne i32 %94, 0
  br i1 %96, label %43, label %97, !llvm.loop !13

97:                                               ; preds = %93
  %98 = getelementptr inbounds %struct.Int128_, ptr %7, i32 0, i32 0
  %99 = load i64, ptr %98, align 8
  %100 = load ptr, ptr %10, align 8
  %101 = getelementptr inbounds %struct.Int128_, ptr %100, i32 0, i32 0
  store i64 %99, ptr %101, align 8
  %102 = getelementptr inbounds %struct.Int128_, ptr %7, i32 0, i32 1
  %103 = load i64, ptr %102, align 8
  %104 = load ptr, ptr %10, align 8
  %105 = getelementptr inbounds %struct.Int128_, ptr %104, i32 0, i32 1
  store i64 %103, ptr %105, align 8
  br label %106

106:                                              ; preds = %97, %29
  ret void
}

; Function Attrs: nounwind uwtable
define dso_local { i64, i64 } @i128_udiv(i64 %0, i64 %1, i64 %2, i64 %3) #0 {
  %5 = alloca %struct.Int128_, align 8
  %6 = alloca %struct.Int128_, align 8
  %7 = alloca %struct.Int128_, align 8
  %8 = alloca %struct.Int128_, align 8
  %9 = getelementptr inbounds { i64, i64 }, ptr %6, i32 0, i32 0
  store i64 %0, ptr %9, align 8
  %10 = getelementptr inbounds { i64, i64 }, ptr %6, i32 0, i32 1
  store i64 %1, ptr %10, align 8
  %11 = getelementptr inbounds { i64, i64 }, ptr %7, i32 0, i32 0
  store i64 %2, ptr %11, align 8
  %12 = getelementptr inbounds { i64, i64 }, ptr %7, i32 0, i32 1
  store i64 %3, ptr %12, align 8
  %13 = getelementptr inbounds { i64, i64 }, ptr %6, i32 0, i32 0
  %14 = load i64, ptr %13, align 8
  %15 = getelementptr inbounds { i64, i64 }, ptr %6, i32 0, i32 1
  %16 = load i64, ptr %15, align 8
  %17 = getelementptr inbounds { i64, i64 }, ptr %7, i32 0, i32 0
  %18 = load i64, ptr %17, align 8
  %19 = getelementptr inbounds { i64, i64 }, ptr %7, i32 0, i32 1
  %20 = load i64, ptr %19, align 8
  call void @i128_udivrem(i64 %14, i64 %16, i64 %18, i64 %20, ptr noundef %5, ptr noundef %8)
  %21 = load { i64, i64 }, ptr %5, align 8
  ret { i64, i64 } %21
}