; Function Attrs: nofree norecurse nosync nounwind memory(none) uwtable
define dso_local { i64, i64 } @i128_udiv(i64 %0, i64 %1, i64 %2, i64 %3) local_unnamed_addr #3 {
  %5 = alloca %struct.Int128_, align 8
  %6 = alloca %struct.Int128_, align 8
  call void @llvm.lifetime.start.p0(i64 16, ptr nonnull %5)
  call void @llvm.lifetime.start.p0(i64 16, ptr nonnull %6)
  store i64 %0, ptr %5, align 8
  %7 = getelementptr inbounds nuw i8, ptr %5, i64 8
  store i64 %1, ptr %7, align 8
  store i64 %2, ptr %6, align 8
  %8 = getelementptr inbounds nuw i8, ptr %6, i64 8
  store i64 %3, ptr %8, align 8
  %9 = call i32 @i128_clz(ptr noundef nonnull %6)
  %10 = call i32 @i128_clz(ptr noundef nonnull %5)
  %11 = sub nsw i32 %9, %10
  %12 = icmp slt i32 %11, 0
  br i1 %12, label %i128_udivrem.exit, label %13

13:                                               ; preds = %4
  %14 = zext nneg i32 %11 to i64
  %15 = icmp eq i32 %11, 0
  br i1 %15, label %i128_shl64.exit.i.preheader, label %16

16:                                               ; preds = %13
  %17 = icmp samesign ugt i32 %11, 127
  br i1 %17, label %i128_shl64.exit.i.preheader, label %18

18:                                               ; preds = %16
  %19 = icmp eq i32 %11, 64
  br i1 %19, label %i128_shl64.exit.i.preheader, label %20

20:                                               ; preds = %18
  %21 = icmp samesign ugt i32 %11, 64
  br i1 %21, label %22, label %25

22:                                               ; preds = %20
  %23 = add nsw i64 %14, -64
  %24 = shl i64 %3, %23
  br label %i128_shl64.exit.i.preheader

25:                                               ; preds = %20
  %26 = shl i64 %2, %14
  %27 = sub nuw nsw i64 64, %14
  %28 = lshr i64 %3, %27
  %29 = or disjoint i64 %28, %26
  %30 = shl i64 %3, %14
  br label %i128_shl64.exit.i.preheader

i128_shl64.exit.i.preheader:                      ; preds = %25, %22, %18, %16, %13
  %.ph = phi i64 [ %3, %13 ], [ 0, %16 ], [ 0, %18 ], [ 0, %22 ], [ %30, %25 ]
  %.ph8 = phi i64 [ %2, %13 ], [ 0, %16 ], [ %3, %18 ], [ %24, %22 ], [ %29, %25 ]
  br label %i128_shl64.exit.i

i128_shl64.exit.i:                                ; preds = %i128_shl64.exit.i.preheader, %i128_ucomp.exit.i
  %31 = phi i64 [ %47, %i128_ucomp.exit.i ], [ %1, %i128_shl64.exit.i.preheader ]
  %32 = phi i64 [ %48, %i128_ucomp.exit.i ], [ %0, %i128_shl64.exit.i.preheader ]
  %33 = phi i64 [ %49, %i128_ucomp.exit.i ], [ 0, %i128_shl64.exit.i.preheader ]
  %34 = phi i64 [ %37, %i128_ucomp.exit.i ], [ 0, %i128_shl64.exit.i.preheader ]
  %35 = phi i64 [ %50, %i128_ucomp.exit.i ], [ %.ph, %i128_shl64.exit.i.preheader ]
  %36 = phi i64 [ %51, %i128_ucomp.exit.i ], [ %.ph8, %i128_shl64.exit.i.preheader ]
  %.0.i = phi i32 [ %52, %i128_ucomp.exit.i ], [ %11, %i128_shl64.exit.i.preheader ]
  %37 = tail call i64 @llvm.fshl.i64(i64 %34, i64 %33, i64 1)
  %38 = shl i64 %33, 1
  %39 = icmp ugt i64 %32, %36
  br i1 %39, label %select.unfold.i, label %40

40:                                               ; preds = %i128_shl64.exit.i
  %41 = icmp ult i64 %32, %36
  %or.cond.not.i = icmp ult i64 %31, %35
  %or.cond.i = select i1 %41, i1 true, i1 %or.cond.not.i
  br i1 %or.cond.i, label %i128_ucomp.exit.i, label %select.unfold.i

select.unfold.i:                                  ; preds = %40, %i128_shl64.exit.i
  %42 = sub i64 %32, %36
  %43 = icmp ugt i64 %35, %31
  %44 = sext i1 %43 to i64
  %spec.select.i.i = add i64 %42, %44
  %45 = sub i64 %31, %35
  %46 = or disjoint i64 %38, 1
  br label %i128_ucomp.exit.i

i128_ucomp.exit.i:                                ; preds = %select.unfold.i, %40
  %47 = phi i64 [ %31, %40 ], [ %45, %select.unfold.i ]
  %48 = phi i64 [ %32, %40 ], [ %spec.select.i.i, %select.unfold.i ]
  %49 = phi i64 [ %38, %40 ], [ %46, %select.unfold.i ]
  %50 = tail call i64 @llvm.fshl.i64(i64 %36, i64 %35, i64 63)
  %51 = lshr i64 %36, 1
  %52 = add nsw i32 %.0.i, -1
  %.not18.i = icmp eq i32 %.0.i, 0
  br i1 %.not18.i, label %i128_udivrem.exit, label %i128_shl64.exit.i, !llvm.loop !7

i128_udivrem.exit:                                ; preds = %i128_ucomp.exit.i, %4
  %.sroa.03.0 = phi i64 [ 0, %4 ], [ %37, %i128_ucomp.exit.i ]
  %.sroa.3.0 = phi i64 [ 0, %4 ], [ %49, %i128_ucomp.exit.i ]
  call void @llvm.lifetime.end.p0(i64 16, ptr nonnull %5)
  call void @llvm.lifetime.end.p0(i64 16, ptr nonnull %6)
  %.fca.0.insert = insertvalue { i64, i64 } poison, i64 %.sroa.03.0, 0
  %.fca.1.insert = insertvalue { i64, i64 } %.fca.0.insert, i64 %.sroa.3.0, 1
  ret { i64, i64 } %.fca.1.insert
}